; Function Attrs: mustprogress uwtable
define internal fastcc void @_ZL9checkMaskRKN2cv11_InputArrayENS_5Size_IiEE(ptr dead_on_unwind noalias writable align 8 %0, ptr noundef nonnull align 8 dereferenceable(24) %1, i64 %2) unnamed_addr #0 personality ptr @__gxx_personality_v0 {
  %4 = alloca %"class.cv::Mat", align 8
  %5 = alloca %"class.cv::_InputArray", align 8
  %6 = alloca %"class.cv::_OutputArray", align 8
  %7 = alloca %"class.cv::Mat", align 8
  %8 = alloca %"class.cv::Scalar_", align 8
  %9 = alloca %"class.cv::_OutputArray", align 8
  %.sroa.0.0.extract.trunc = trunc i64 %2 to i32
  %.sroa.2.0.extract.shift = lshr i64 %2, 32
  %.sroa.2.0.extract.trunc = trunc nuw i64 %.sroa.2.0.extract.shift to i32
  %10 = tail call noundef i32 @_ZNK2cv11_InputArray4kindEv(ptr noundef nonnull align 8 dereferenceable(24) %1), !noalias !16
  %11 = icmp eq i32 %10, 65536
  br i1 %11, label %12, label %15

12:                                               ; preds = %3
  %13 = getelementptr inbounds i8, ptr %1, i64 8
  %14 = load ptr, ptr %13, align 8, !noalias !16
  call void @_ZN2cv3MatC1ERKS0_(ptr noundef nonnull align 8 dereferenceable(96) %4, ptr noundef nonnull align 8 dereferenceable(96) %14)
  br label %_ZNK2cv11_InputArray6getMatEi.exit

15:                                               ; preds = %3
  call void @_ZNK2cv11_InputArray7getMat_Ei(ptr dead_on_unwind nonnull writable sret(%"class.cv::Mat") align 8 %4, ptr noundef nonnull align 8 dereferenceable(24) %1, i32 noundef -1)
  br label %_ZNK2cv11_InputArray6getMatEi.exit

_ZNK2cv11_InputArray6getMatEi.exit:               ; preds = %12, %15
  call void @_ZN2cv3MatC1Ev(ptr noundef nonnull align 8 dereferenceable(96) %0) #8
  %16 = load i32, ptr %4, align 8
  %17 = and i32 %16, 4088
  %.not = icmp eq i32 %17, 0
  br i1 %.not, label %28, label %18

18:                                               ; preds = %_ZNK2cv11_InputArray6getMatEi.exit
  %19 = getelementptr inbounds i8, ptr %5, i64 16
  store i32 0, ptr %19, align 8
  %20 = getelementptr inbounds i8, ptr %5, i64 20
  store i32 0, ptr %20, align 4
  store i32 16842752, ptr %5, align 8
  %21 = getelementptr inbounds i8, ptr %5, i64 8
  store ptr %4, ptr %21, align 8
  %22 = getelementptr inbounds i8, ptr %6, i64 8
  %23 = getelementptr inbounds i8, ptr %6, i64 16
  store i64 0, ptr %23, align 8
  store i32 33619968, ptr %6, align 8
  store ptr %0, ptr %22, align 8
  invoke void @_ZN2cv8cvtColorERKNS_11_InputArrayERKNS_12_OutputArrayEii(ptr noundef nonnull align 8 dereferenceable(24) %5, ptr noundef nonnull align 8 dereferenceable(24) %6, i32 noundef 10, i32 noundef 0)
          to label %43 unwind label %26

24:                                               ; preds = %31, %28
  %25 = landingpad { ptr, i32 }
          cleanup
  br label %44

26:                                               ; preds = %18
  %27 = landingpad { ptr, i32 }
          cleanup
  br label %44

28:                                               ; preds = %_ZNK2cv11_InputArray6getMatEi.exit
  %29 = invoke noundef zeroext i1 @_ZNK2cv3Mat5emptyEv(ptr noundef nonnull align 8 dereferenceable(96) %4)
          to label %30 unwind label %24

30:                                               ; preds = %28
  br i1 %29, label %31, label %38

31:                                               ; preds = %30
  store double 2.550000e+02, ptr %8, align 8
  %32 = getelementptr inbounds i8, ptr %8, i64 8
  call void @llvm.memset.p0.i64(ptr noundef nonnull align 8 dereferenceable(24) %32, i8 0, i64 24, i1 false)
  invoke void @_ZN2cv3MatC1EiiiRKNS_7Scalar_IdEE(ptr noundef nonnull align 8 dereferenceable(96) %7, i32 noundef %.sroa.2.0.extract.trunc, i32 noundef %.sroa.0.0.extract.trunc, i32 noundef 0, ptr noundef nonnull align 8 dereferenceable(32) %8)
          to label %33 unwind label %24

33:                                               ; preds = %31
  %34 = invoke noundef nonnull align 8 dereferenceable(96) ptr @_ZN2cv3MataSEOS0_(ptr noundef nonnull align 8 dereferenceable(96) %0, ptr noundef nonnull align 8 dereferenceable(96) %7)
          to label %35 unwind label %36

35:                                               ; preds = %33
  call void @_ZN2cv3MatD1Ev(ptr noundef nonnull align 8 dereferenceable(96) %7) #8
  br label %43

36:                                               ; preds = %33
  %37 = landingpad { ptr, i32 }
          cleanup
  call void @_ZN2cv3MatD1Ev(ptr noundef nonnull align 8 dereferenceable(96) %7) #8
  br label %44

38:                                               ; preds = %30
  %39 = getelementptr inbounds i8, ptr %9, i64 8
  %40 = getelementptr inbounds i8, ptr %9, i64 16
  store i64 0, ptr %40, align 8
  store i32 33619968, ptr %9, align 8
  store ptr %0, ptr %39, align 8
  invoke void @_ZNK2cv3Mat6copyToERKNS_12_OutputArrayE(ptr noundef nonnull align 8 dereferenceable(96) %4, ptr noundef nonnull align 8 dereferenceable(24) %9)
          to label %43 unwind label %41

41:                                               ; preds = %38
  %42 = landingpad { ptr, i32 }
          cleanup
  br label %44

43:                                               ; preds = %38, %18, %35
  call void @_ZN2cv3MatD1Ev(ptr noundef nonnull align 8 dereferenceable(96) %4) #8
  ret void

44:                                               ; preds = %26, %41, %36, %24
  %.pn.pn = phi { ptr, i32 } [ %25, %24 ], [ %37, %36 ], [ %42, %41 ], [ %27, %26 ]
  call void @_ZN2cv3MatD1Ev(ptr noundef nonnull align 8 dereferenceable(96) %0) #8
  call void @_ZN2cv3MatD1Ev(ptr noundef nonnull align 8 dereferenceable(96) %4) #8
  resume { ptr, i32 } %.pn.pn
}